; Function Attrs: mustprogress uwtable
define hidden void @_ZN4cvc58internal6theory11quantifiers12InstStrategyC2ERNS0_3EnvERNS2_4inst15TriggerDatabaseERNS2_16QuantifiersStateERNS2_27QuantifiersInferenceManagerERNS2_19QuantifiersRegistryERNS2_12TermRegistryE(ptr noundef nonnull align 8 dereferenceable(56) %this, ptr noundef nonnull align 8 dereferenceable(576) %env, ptr noundef nonnull align 1 %td, ptr noundef nonnull align 8 dereferenceable(248) %qs, ptr noundef nonnull align 1 %qim, ptr noundef nonnull align 1 %qr, ptr noundef nonnull align 1 %tr) unnamed_addr #3 align 2 {
entry:
  tail call void @_ZN4cvc58internal6EnvObjC2ERNS0_3EnvE(ptr noundef nonnull align 8 dereferenceable(16) %this, ptr noundef nonnull align 8 dereferenceable(576) %env)
  store ptr getelementptr inbounds ({ [8 x ptr] }, ptr @_ZTVN4cvc58internal6theory11quantifiers12InstStrategyE, i64 0, i32 0, i64 2), ptr %this, align 8
  %d_td = getelementptr inbounds i8, ptr %this, i64 16
  store ptr %td, ptr %d_td, align 8
  %d_qstate = getelementptr inbounds i8, ptr %this, i64 24
  store ptr %qs, ptr %d_qstate, align 8
  %d_qim = getelementptr inbounds i8, ptr %this, i64 32
  store ptr %qim, ptr %d_qim, align 8
  %d_qreg = getelementptr inbounds i8, ptr %this, i64 40
  store ptr %qr, ptr %d_qreg, align 8
  %d_treg = getelementptr inbounds i8, ptr %this, i64 48
  store ptr %tr, ptr %d_treg, align 8
  ret void
}